target datalayout = "e-m:e-p270:32:32-p271:32:32-p272:64:64-i64:64-i128:128-f80:128-n8:16:32:64-S128"
target triple = "x86_64-pc-linux-gnu"

%class.Matrix44Value = type { %class.Value, %"class.vcg::Matrix44" }
%class.Value = type { ptr }
%"class.vcg::Matrix44" = type { %"struct.std::array" }
%"struct.std::array" = type { [16 x float] }

; Function Attrs: mustprogress nounwind uwtable
define linkonce_odr void @_ZN3vcg8Matrix44IfED2Ev(ptr noundef nonnull align 4 dereferenceable(64) %0) unnamed_addr #0 comdat align 2 {
  %2 = alloca ptr, align 8
  store ptr %0, ptr %2, align 8
  ret void
}

; Function Attrs: mustprogress uwtable
define void @_ZN13Matrix44Value3setERK5Value(ptr noundef nonnull align 8 dereferenceable(72) %0, ptr noundef nonnull align 8 dereferenceable(8) %1) unnamed_addr #1 align 2 {
  %3 = alloca ptr, align 8
  %4 = alloca ptr, align 8
  %5 = alloca %"class.vcg::Matrix44", align 4
  store ptr %0, ptr %3, align 8
  store ptr %1, ptr %4, align 8
  %6 = load ptr, ptr %3, align 8
  %7 = load ptr, ptr %4, align 8
  %8 = load ptr, ptr %7, align 8
  %9 = getelementptr inbounds ptr, ptr %8, i64 6
  %10 = load ptr, ptr %9, align 8
  call void %10(ptr dead_on_unwind writable sret(%"class.vcg::Matrix44") align 4 %5, ptr noundef nonnull align 8 dereferenceable(8) %7)
  %11 = getelementptr inbounds %class.Matrix44Value, ptr %6, i32 0, i32 1
  call void @llvm.memcpy.p0.p0.i64(ptr align 8 %11, ptr align 4 %5, i64 64, i1 false)
  call void @_ZN3vcg8Matrix44IfED2Ev(ptr noundef nonnull align 4 dereferenceable(64) %5) #5
  ret void
}