; Function Attrs: mustprogress uwtable
define void @_ZN13Matrix44Value3setERK5Value(ptr nocapture noundef nonnull writeonly align 8 dereferenceable(72) %0, ptr noundef nonnull align 8 dereferenceable(8) %1) unnamed_addr #2 align 2 {
  %3 = alloca %"class.vcg::Matrix44", align 4
  %4 = load ptr, ptr %1, align 8
  %5 = getelementptr inbounds i8, ptr %4, i64 48
  %6 = load ptr, ptr %5, align 8
  call void %6(ptr dead_on_unwind nonnull writable sret(%"class.vcg::Matrix44") align 4 %3, ptr noundef nonnull align 8 dereferenceable(8) %1)
  %7 = getelementptr inbounds i8, ptr %0, i64 8
  call void @llvm.memcpy.p0.p0.i64(ptr noundef nonnull align 8 dereferenceable(64) %7, ptr noundef nonnull align 4 dereferenceable(64) %3, i64 64, i1 false)
  ret void
}